; Function Attrs: mustprogress nounwind uwtable
define hidden void @_ZN6hermes2vm7HadesGC29snapshotWriteBarrierRangeSlowEPKNS0_17GCHermesValueBaseINS0_11HermesValueEEEj(ptr nocapture noundef nonnull readonly align 8 dereferenceable(8152) %this, ptr nocapture noundef readonly %start, i32 noundef %numHVs) local_unnamed_addr #4 align 2 {
entry:
  %cmp3.not = icmp eq i32 %numHVs, 0
  br i1 %cmp3.not, label %for.end, label %for.body.preheader

for.body.preheader:                               ; preds = %entry
  %wide.trip.count = zext i32 %numHVs to i64
  br label %for.body

for.body:                                         ; preds = %for.body.preheader, %for.body
  %indvars.iv = phi i64 [ 0, %for.body.preheader ], [ %indvars.iv.next, %for.body ]
  %arrayidx = getelementptr inbounds %"class.hermes::vm::GCHermesValueBase", ptr %start, i64 %indvars.iv
  %agg.tmp.sroa.0.0.copyload = load i64, ptr %arrayidx, align 8
  tail call void @_ZN6hermes2vm7HadesGC28snapshotWriteBarrierInternalENS0_11HermesValueE(ptr noundef nonnull align 8 dereferenceable(8152) %this, i64 %agg.tmp.sroa.0.0.copyload)
  %indvars.iv.next = add nuw nsw i64 %indvars.iv, 1
  %exitcond.not = icmp eq i64 %indvars.iv.next, %wide.trip.count
  br i1 %exitcond.not, label %for.end, label %for.body, !llvm.loop !155

for.end:                                          ; preds = %for.body, %entry
  ret void
}